target datalayout = "e-m:e-p270:32:32-p271:32:32-p272:64:64-i64:64-i128:128-f80:128-n8:16:32:64-S128"
target triple = "x86_64-pc-linux-gnu"

@bink_scan = internal constant [64 x i8] c"\00\01\08\09\02\03\0A\0B\04\05\0C\0D\06\07\0E\0F\14\15\1C\1D\16\17\1E\1F\10\11\18\19 !()\22#*+018923:;\12\13\1A\1B$%,-&'./45<=67>?", align 16
@binkb_intra_seed = internal constant [64 x i8] c"\10\10\10\13\10\13\16\16\16\16\1A\18\1A\16\16\1B\1B\1B\1A\1A\1A\1D\1D\1D\1B\1B\1B\1A\22\22\22\1D\1D\1D\1B\1B%\22\22  \1D\1D&%##\22#(((&&00..:88EES", align 16
@binkb_num = internal constant [16 x i8] c"\01\04\05\02\07\08\03\07\04\09\05\06\07\08\09\0A", align 16
@binkb_den = internal constant [16 x i8] c"\01\03\03\01\03\03\01\02\01\02\01\01\01\01\01\01", align 16
@binkb_intra_quant = internal global [16 x [64 x i32]] zeroinitializer, align 16
@binkb_inter_seed = internal constant [64 x i8] c"\10\11\11\12\12\12\13\13\13\13\14\14\14\14\14\15\15\15\15\15\15\16\16\16\16\16\16\16\17\17\17\17\17\17\17\17\18\18\18\19\18\18\18\19\1A\1A\1A\1A\19\1B\1B\1B\1B\1B\1C\1C\1C\1C\1E\1E\1E\1F\1F!", align 16
@binkb_inter_quant = internal global [16 x [64 x i32]] zeroinitializer, align 16

; Function Attrs: cold nounwind optsize uwtable
define internal void @binkb_calc_quant() #0 {
  %1 = alloca [64 x i8], align 16
  %2 = alloca i32, align 4
  %3 = alloca i32, align 4
  %4 = alloca i32, align 4
  call void @llvm.lifetime.start.p0(i64 64, ptr %1) #10
  call void @llvm.lifetime.start.p0(i64 4, ptr %2) #10
  call void @llvm.lifetime.start.p0(i64 4, ptr %3) #10
  store i32 0, ptr %2, align 4, !tbaa !40
  br label %5

5:                                                ; preds = %17, %0
  %6 = load i32, ptr %2, align 4, !tbaa !40
  %7 = icmp slt i32 %6, 64
  br i1 %7, label %8, label %20

8:                                                ; preds = %5
  %9 = load i32, ptr %2, align 4, !tbaa !40
  %10 = trunc i32 %9 to i8
  %11 = load i32, ptr %2, align 4, !tbaa !40
  %12 = sext i32 %11 to i64
  %13 = getelementptr inbounds [64 x i8], ptr @bink_scan, i64 0, i64 %12
  %14 = load i8, ptr %13, align 1, !tbaa !39
  %15 = zext i8 %14 to i64
  %16 = getelementptr inbounds nuw [64 x i8], ptr %1, i64 0, i64 %15
  store i8 %10, ptr %16, align 1, !tbaa !39
  br label %17

17:                                               ; preds = %8
  %18 = load i32, ptr %2, align 4, !tbaa !40
  %19 = add nsw i32 %18, 1
  store i32 %19, ptr %2, align 4, !tbaa !40
  br label %5, !llvm.loop !68

20:                                               ; preds = %5
  store i32 0, ptr %3, align 4, !tbaa !40
  br label %21

21:                                               ; preds = %100, %20
  %22 = load i32, ptr %3, align 4, !tbaa !40
  %23 = icmp slt i32 %22, 16
  br i1 %23, label %24, label %103

24:                                               ; preds = %21
  store i32 0, ptr %2, align 4, !tbaa !40
  br label %25

25:                                               ; preds = %96, %24
  %26 = load i32, ptr %2, align 4, !tbaa !40
  %27 = icmp slt i32 %26, 64
  br i1 %27, label %28, label %99

28:                                               ; preds = %25
  call void @llvm.lifetime.start.p0(i64 4, ptr %4) #10
  %29 = load i32, ptr %2, align 4, !tbaa !40
  %30 = sext i32 %29 to i64
  %31 = getelementptr inbounds [64 x i8], ptr %1, i64 0, i64 %30
  %32 = load i8, ptr %31, align 1, !tbaa !39
  %33 = zext i8 %32 to i32
  store i32 %33, ptr %4, align 4, !tbaa !40
  %34 = load i32, ptr %2, align 4, !tbaa !40
  %35 = sext i32 %34 to i64
  %36 = getelementptr inbounds [64 x i8], ptr @binkb_intra_seed, i64 0, i64 %35
  %37 = load i8, ptr %36, align 1, !tbaa !39
  %38 = zext i8 %37 to i64
  %39 = load i32, ptr %2, align 4, !tbaa !40
  %40 = sext i32 %39 to i64
  %41 = getelementptr inbounds [64 x i32], ptr @binkb_calc_quant.s, i64 0, i64 %40
  %42 = load i32, ptr %41, align 4, !tbaa !40
  %43 = sext i32 %42 to i64
  %44 = mul nsw i64 %38, %43
  %45 = load i32, ptr %3, align 4, !tbaa !40
  %46 = sext i32 %45 to i64
  %47 = getelementptr inbounds [16 x i8], ptr @binkb_num, i64 0, i64 %46
  %48 = load i8, ptr %47, align 1, !tbaa !39
  %49 = zext i8 %48 to i64
  %50 = mul nsw i64 %44, %49
  %51 = load i32, ptr %3, align 4, !tbaa !40
  %52 = sext i32 %51 to i64
  %53 = getelementptr inbounds [16 x i8], ptr @binkb_den, i64 0, i64 %52
  %54 = load i8, ptr %53, align 1, !tbaa !39
  %55 = zext i8 %54 to i64
  %56 = mul nsw i64 %55, 262144
  %57 = sdiv i64 %50, %56
  %58 = trunc i64 %57 to i32
  %59 = load i32, ptr %3, align 4, !tbaa !40
  %60 = sext i32 %59 to i64
  %61 = getelementptr inbounds [16 x [64 x i32]], ptr @binkb_intra_quant, i64 0, i64 %60
  %62 = load i32, ptr %4, align 4, !tbaa !40
  %63 = sext i32 %62 to i64
  %64 = getelementptr inbounds [64 x i32], ptr %61, i64 0, i64 %63
  store i32 %58, ptr %64, align 4, !tbaa !40
  %65 = load i32, ptr %2, align 4, !tbaa !40
  %66 = sext i32 %65 to i64
  %67 = getelementptr inbounds [64 x i8], ptr @binkb_inter_seed, i64 0, i64 %66
  %68 = load i8, ptr %67, align 1, !tbaa !39
  %69 = zext i8 %68 to i64
  %70 = load i32, ptr %2, align 4, !tbaa !40
  %71 = sext i32 %70 to i64
  %72 = getelementptr inbounds [64 x i32], ptr @binkb_calc_quant.s, i64 0, i64 %71
  %73 = load i32, ptr %72, align 4, !tbaa !40
  %74 = sext i32 %73 to i64
  %75 = mul nsw i64 %69, %74
  %76 = load i32, ptr %3, align 4, !tbaa !40
  %77 = sext i32 %76 to i64
  %78 = getelementptr inbounds [16 x i8], ptr @binkb_num, i64 0, i64 %77
  %79 = load i8, ptr %78, align 1, !tbaa !39
  %80 = zext i8 %79 to i64
  %81 = mul nsw i64 %75, %80
  %82 = load i32, ptr %3, align 4, !tbaa !40
  %83 = sext i32 %82 to i64
  %84 = getelementptr inbounds [16 x i8], ptr @binkb_den, i64 0, i64 %83
  %85 = load i8, ptr %84, align 1, !tbaa !39
  %86 = zext i8 %85 to i64
  %87 = mul nsw i64 %86, 262144
  %88 = sdiv i64 %81, %87
  %89 = trunc i64 %88 to i32
  %90 = load i32, ptr %3, align 4, !tbaa !40
  %91 = sext i32 %90 to i64
  %92 = getelementptr inbounds [16 x [64 x i32]], ptr @binkb_inter_quant, i64 0, i64 %91
  %93 = load i32, ptr %4, align 4, !tbaa !40
  %94 = sext i32 %93 to i64
  %95 = getelementptr inbounds [64 x i32], ptr %92, i64 0, i64 %94
  store i32 %89, ptr %95, align 4, !tbaa !40
  call void @llvm.lifetime.end.p0(i64 4, ptr %4) #10
  br label %96

96:                                               ; preds = %28
  %97 = load i32, ptr %2, align 4, !tbaa !40
  %98 = add nsw i32 %97, 1
  store i32 %98, ptr %2, align 4, !tbaa !40
  br label %25, !llvm.loop !69

99:                                               ; preds = %25
  br label %100

100:                                              ; preds = %99
  %101 = load i32, ptr %3, align 4, !tbaa !40
  %102 = add nsw i32 %101, 1
  store i32 %102, ptr %3, align 4, !tbaa !40
  br label %21, !llvm.loop !70

103:                                              ; preds = %21
  call void @llvm.lifetime.end.p0(i64 4, ptr %3) #10
  call void @llvm.lifetime.end.p0(i64 4, ptr %2) #10
  call void @llvm.lifetime.end.p0(i64 64, ptr %1) #10
  ret void
}