; Function Attrs: cold nofree norecurse nosync nounwind optsize memory(write, argmem: none, inaccessiblemem: none) uwtable
define internal void @binkb_calc_quant() #5 {
  %1 = alloca [64 x i8], align 16
  call void @llvm.lifetime.start.p0(i64 64, ptr nonnull %1) #11
  br label %2

2:                                                ; preds = %0, %2
  %indvars.iv = phi i64 [ 0, %0 ], [ %indvars.iv.next, %2 ]
  %3 = trunc i64 %indvars.iv to i8
  %4 = getelementptr inbounds nuw [64 x i8], ptr @bink_scan, i64 0, i64 %indvars.iv
  %5 = load i8, ptr %4, align 1, !tbaa !36
  %6 = zext i8 %5 to i64
  %7 = getelementptr inbounds nuw [64 x i8], ptr %1, i64 0, i64 %6
  store i8 %3, ptr %7, align 1, !tbaa !36
  %indvars.iv.next = add nuw nsw i64 %indvars.iv, 1
  %exitcond.not = icmp eq i64 %indvars.iv.next, 64
  br i1 %exitcond.not, label %.preheader, label %2, !llvm.loop !95

.preheader:                                       ; preds = %2, %37
  %indvars.iv31 = phi i64 [ %indvars.iv.next32, %37 ], [ 0, %2 ]
  %8 = getelementptr inbounds nuw [16 x i8], ptr @binkb_num, i64 0, i64 %indvars.iv31
  %9 = load i8, ptr %8, align 1, !tbaa !36
  %10 = zext i8 %9 to i64
  %11 = getelementptr inbounds nuw [16 x i8], ptr @binkb_den, i64 0, i64 %indvars.iv31
  %12 = load i8, ptr %11, align 1, !tbaa !36
  %13 = zext i8 %12 to i64
  %14 = shl nuw nsw i64 %13, 18
  br label %15

15:                                               ; preds = %.preheader, %15
  %indvars.iv27 = phi i64 [ 0, %.preheader ], [ %indvars.iv.next28, %15 ]
  %16 = getelementptr inbounds nuw [64 x i8], ptr %1, i64 0, i64 %indvars.iv27
  %17 = load i8, ptr %16, align 1, !tbaa !36
  %18 = getelementptr inbounds nuw [64 x i8], ptr @binkb_intra_seed, i64 0, i64 %indvars.iv27
  %19 = load i8, ptr %18, align 1, !tbaa !36
  %20 = zext i8 %19 to i64
  %21 = getelementptr inbounds nuw [64 x i32], ptr @binkb_calc_quant.s, i64 0, i64 %indvars.iv27
  %22 = load i32, ptr %21, align 4, !tbaa !58
  %23 = sext i32 %22 to i64
  %24 = mul nsw i64 %10, %23
  %25 = mul nsw i64 %24, %20
  %26 = sdiv i64 %25, %14
  %27 = trunc i64 %26 to i32
  %28 = zext i8 %17 to i64
  %29 = getelementptr inbounds nuw [16 x [64 x i32]], ptr @binkb_intra_quant, i64 0, i64 %indvars.iv31, i64 %28
  store i32 %27, ptr %29, align 4, !tbaa !58
  %30 = getelementptr inbounds nuw [64 x i8], ptr @binkb_inter_seed, i64 0, i64 %indvars.iv27
  %31 = load i8, ptr %30, align 1, !tbaa !36
  %32 = zext i8 %31 to i64
  %33 = mul nsw i64 %24, %32
  %34 = sdiv i64 %33, %14
  %35 = trunc i64 %34 to i32
  %36 = getelementptr inbounds nuw [16 x [64 x i32]], ptr @binkb_inter_quant, i64 0, i64 %indvars.iv31, i64 %28
  store i32 %35, ptr %36, align 4, !tbaa !58
  %indvars.iv.next28 = add nuw nsw i64 %indvars.iv27, 1
  %exitcond30.not = icmp eq i64 %indvars.iv.next28, 64
  br i1 %exitcond30.not, label %37, label %15, !llvm.loop !96

37:                                               ; preds = %15
  %indvars.iv.next32 = add nuw nsw i64 %indvars.iv31, 1
  %exitcond34.not = icmp eq i64 %indvars.iv.next32, 16
  br i1 %exitcond34.not, label %38, label %.preheader, !llvm.loop !97

38:                                               ; preds = %37
  call void @llvm.lifetime.end.p0(i64 64, ptr nonnull %1) #11
  ret void
}